; Function Attrs: mustprogress uwtable
define void @_ZN3g2o16OptimizableGraph13forEachVertexERSt3setIPNS_10HyperGraph6VertexESt4lessIS4_ESaIS4_EESt8functionIFvPNS0_6VertexEEE(ptr noundef nonnull readnone align 8 captures(none) dereferenceable(288) %0, ptr noundef nonnull readonly align 8 captures(address) dereferenceable(48) %1, ptr noundef %2) local_unnamed_addr #4 align 2 personality ptr @__gxx_personality_v0 {
  %4 = alloca ptr, align 8
  %5 = getelementptr inbounds nuw i8, ptr %1, i64 24
  %6 = load ptr, ptr %5, align 8, !tbaa !94
  %7 = getelementptr inbounds nuw i8, ptr %1, i64 8
  %.not6 = icmp eq ptr %6, %7
  br i1 %.not6, label %._crit_edge, label %.lr.ph

.lr.ph:                                           ; preds = %3
  %8 = getelementptr inbounds nuw i8, ptr %2, i64 16
  %9 = getelementptr inbounds nuw i8, ptr %2, i64 24
  br label %10

._crit_edge:                                      ; preds = %_ZNKSt8functionIFvPN3g2o16OptimizableGraph6VertexEEEclES3_.exit, %3
  ret void

10:                                               ; preds = %.lr.ph, %_ZNKSt8functionIFvPN3g2o16OptimizableGraph6VertexEEEclES3_.exit
  %.sroa.03.07 = phi ptr [ %6, %.lr.ph ], [ %16, %_ZNKSt8functionIFvPN3g2o16OptimizableGraph6VertexEEEclES3_.exit ]
  %11 = getelementptr inbounds nuw i8, ptr %.sroa.03.07, i64 32
  %12 = load ptr, ptr %11, align 8, !tbaa !79
  call void @llvm.lifetime.start.p0(i64 8, ptr nonnull %4)
  store ptr %12, ptr %4, align 8, !tbaa !145
  %13 = load ptr, ptr %8, align 8, !tbaa !141
  %.not.i.i = icmp eq ptr %13, null
  br i1 %.not.i.i, label %14, label %_ZNKSt8functionIFvPN3g2o16OptimizableGraph6VertexEEEclES3_.exit

14:                                               ; preds = %10
  call void @_ZSt25__throw_bad_function_callv() #48
  unreachable

_ZNKSt8functionIFvPN3g2o16OptimizableGraph6VertexEEEclES3_.exit: ; preds = %10
  %15 = load ptr, ptr %9, align 8, !tbaa !138
  call void %15(ptr noundef nonnull align 8 dereferenceable(32) %2, ptr noundef nonnull align 8 dereferenceable(8) %4)
  call void @llvm.lifetime.end.p0(i64 8, ptr nonnull %4)
  %16 = call noundef ptr @_ZSt18_Rb_tree_incrementPKSt18_Rb_tree_node_base(ptr noundef nonnull %.sroa.03.07) #47
  %.not = icmp eq ptr %16, %7
  br i1 %.not, label %._crit_edge, label %10, !llvm.loop !148
}